target datalayout = "e-m:e-p270:32:32-p271:32:32-p272:64:64-i64:64-i128:128-f80:128-n8:16:32:64-S128"
target triple = "x86_64-pc-linux-gnu"

%struct._fvalue_t = type { ptr, %union.anon.1 }
%union.anon.1 = type { %struct._protocol_value_t }
%struct._protocol_value_t = type { ptr, i32, ptr, i8 }
%struct.ipv6_addr_and_prefix = type { %struct.e_in6_addr, i32 }
%struct.e_in6_addr = type { [16 x i8] }
%struct._ipv6 = type { [2 x i64] }

; Function Attrs: null_pointer_is_valid sspstrong uwtable
define internal i32 @ipv6_hash(ptr noundef %0) #0 {
  %2 = alloca ptr, align 8
  %3 = alloca ptr, align 8
  %4 = alloca i64, align 8
  store ptr %0, ptr %2, align 8
  call void @llvm.lifetime.start.p0(i64 8, ptr %3) #7
  %5 = load ptr, ptr %2, align 8
  %6 = getelementptr inbounds nuw %struct._fvalue_t, ptr %5, i32 0, i32 1
  %7 = getelementptr inbounds nuw %struct.ipv6_addr_and_prefix, ptr %6, i32 0, i32 0
  store ptr %7, ptr %3, align 8
  call void @llvm.lifetime.start.p0(i64 8, ptr %4) #7
  %8 = load ptr, ptr %2, align 8
  %9 = getelementptr inbounds nuw %struct._fvalue_t, ptr %8, i32 0, i32 1
  %10 = getelementptr inbounds nuw %struct.ipv6_addr_and_prefix, ptr %9, i32 0, i32 1
  %11 = load i32, ptr %10, align 8
  %12 = zext i32 %11 to i64
  store i64 %12, ptr %4, align 8
  %13 = load ptr, ptr %3, align 8
  %14 = getelementptr inbounds nuw %struct._ipv6, ptr %13, i32 0, i32 0
  %15 = getelementptr [2 x i64], ptr %14, i64 0, i64 0
  %16 = call i32 @g_int64_hash(ptr noundef %15)
  %17 = load ptr, ptr %3, align 8
  %18 = getelementptr inbounds nuw %struct._ipv6, ptr %17, i32 0, i32 0
  %19 = getelementptr [2 x i64], ptr %18, i64 0, i64 1
  %20 = call i32 @g_int64_hash(ptr noundef %19)
  %21 = xor i32 %16, %20
  %22 = call i32 @g_int64_hash(ptr noundef %4)
  %23 = xor i32 %21, %22
  call void @llvm.lifetime.end.p0(i64 8, ptr %4) #7
  call void @llvm.lifetime.end.p0(i64 8, ptr %3) #7
  ret i32 %23
}