; Function Attrs: null_pointer_is_valid sspstrong uwtable
define internal i32 @ipv6_hash(ptr noundef %0) #0 {
  %2 = alloca i64, align 8
  %3 = getelementptr inbounds nuw i8, ptr %0, i64 8
  call void @llvm.lifetime.start.p0(i64 8, ptr nonnull %2) #12
  %4 = getelementptr inbounds nuw i8, ptr %0, i64 24
  %5 = load i32, ptr %4, align 8
  %6 = zext i32 %5 to i64
  store i64 %6, ptr %2, align 8
  %7 = tail call i32 @g_int64_hash(ptr noundef nonnull %3)
  %8 = getelementptr i8, ptr %0, i64 16
  %9 = tail call i32 @g_int64_hash(ptr noundef %8)
  %10 = xor i32 %9, %7
  %11 = call i32 @g_int64_hash(ptr noundef nonnull %2)
  %12 = xor i32 %10, %11
  call void @llvm.lifetime.end.p0(i64 8, ptr nonnull %2) #12
  ret i32 %12
}